target datalayout = "e-m:e-p270:32:32-p271:32:32-p272:64:64-i64:64-i128:128-f80:128-n8:16:32:64-S128"
target triple = "x86_64-pc-linux-gnu"

%struct.quicklist = type { ptr, ptr, i64, i64, i64, [0 x %struct.quicklistBookmark] }
%struct.quicklistBookmark = type { ptr, ptr }

; Function Attrs: nounwind uwtable
define dso_local void @quicklistBookmarksClear(ptr noundef %0) #0 {
  %2 = alloca ptr, align 8
  store ptr %0, ptr %2, align 8, !tbaa !9
  br label %3

3:                                                ; preds = %11, %1
  %4 = load ptr, ptr %2, align 8, !tbaa !9
  %5 = getelementptr inbounds nuw %struct.quicklist, ptr %4, i32 0, i32 4
  %6 = load i64, ptr %5, align 8
  %7 = lshr i64 %6, 32
  %8 = and i64 %7, 15
  %9 = trunc i64 %8 to i32
  %10 = icmp ne i32 %9, 0
  br i1 %10, label %11, label %32

11:                                               ; preds = %3
  %12 = load ptr, ptr %2, align 8, !tbaa !9
  %13 = getelementptr inbounds nuw %struct.quicklist, ptr %12, i32 0, i32 5
  %14 = load ptr, ptr %2, align 8, !tbaa !9
  %15 = getelementptr inbounds nuw %struct.quicklist, ptr %14, i32 0, i32 4
  %16 = load i64, ptr %15, align 8
  %17 = lshr i64 %16, 32
  %18 = and i64 %17, 15
  %19 = trunc i64 %18 to i32
  %20 = add i32 %19, -1
  %21 = zext i32 %20 to i64
  %22 = load i64, ptr %15, align 8
  %23 = and i64 %21, 15
  %24 = shl i64 %23, 32
  %25 = and i64 %22, -64424509441
  %26 = or i64 %25, %24
  store i64 %26, ptr %15, align 8
  %27 = trunc i64 %23 to i32
  %28 = zext i32 %27 to i64
  %29 = getelementptr inbounds nuw [0 x %struct.quicklistBookmark], ptr %13, i64 0, i64 %28
  %30 = getelementptr inbounds nuw %struct.quicklistBookmark, ptr %29, i32 0, i32 1
  %31 = load ptr, ptr %30, align 8, !tbaa !24
  call void @zfree(ptr noundef %31)
  br label %3, !llvm.loop !26

32:                                               ; preds = %3
  ret void
}