; Function Attrs: nounwind uwtable
define dso_local void @quicklistBookmarksClear(ptr noundef captures(none) %0) local_unnamed_addr #1 {
  %2 = getelementptr inbounds nuw i8, ptr %0, i64 32
  %3 = load i64, ptr %2, align 8
  %4 = and i64 %3, 64424509440
  %.not3 = icmp eq i64 %4, 0
  br i1 %.not3, label %._crit_edge, label %.lr.ph

.lr.ph:                                           ; preds = %1
  %5 = getelementptr i8, ptr %0, i64 48
  br label %6

6:                                                ; preds = %.lr.ph, %6
  %7 = phi i64 [ %3, %.lr.ph ], [ %16, %6 ]
  %8 = lshr i64 %7, 32
  %9 = add nuw nsw i64 %8, 15
  %10 = and i64 %9, 15
  %11 = shl nuw nsw i64 %10, 32
  %12 = and i64 %7, -64424509441
  %13 = or disjoint i64 %11, %12
  store i64 %13, ptr %2, align 8
  %.idx = shl nuw nsw i64 %10, 4
  %14 = getelementptr i8, ptr %5, i64 %.idx
  %15 = load ptr, ptr %14, align 8, !tbaa !20
  tail call void @zfree(ptr noundef %15) #23
  %16 = load i64, ptr %2, align 8
  %17 = and i64 %16, 64424509440
  %.not = icmp eq i64 %17, 0
  br i1 %.not, label %._crit_edge, label %6, !llvm.loop !22

._crit_edge:                                      ; preds = %6, %1
  ret void
}